; Function Attrs: mustprogress nofree norecurse nosync nounwind willreturn memory(readwrite, inaccessiblemem: none) uwtable
define hidden void @_ZN18AbstractDumpWriter10write_fastEPKvm(ptr nocapture noundef nonnull align 8 dereferenceable(34) %0, ptr nocapture noundef readonly %1, i64 noundef %2) local_unnamed_addr #0 align 2 {
  %4 = getelementptr inbounds i8, ptr %0, i64 8
  %5 = load ptr, ptr %4, align 8
  %6 = getelementptr inbounds i8, ptr %0, i64 24
  %7 = load i64, ptr %6, align 8
  %8 = getelementptr inbounds i8, ptr %5, i64 %7
  tail call void @llvm.memcpy.p0.p0.i64(ptr align 1 %8, ptr align 1 %1, i64 %2, i1 false)
  %9 = load i64, ptr %6, align 8
  %10 = add i64 %9, %2
  store i64 %10, ptr %6, align 8
  ret void
}